; Function Attrs: nounwind uwtable
define internal ptr @fileio_get_blksize(ptr noundef readonly captures(none) %0, ptr readnone captures(none) %1) #1 {
  %3 = getelementptr inbounds nuw i8, ptr %0, i64 24
  %4 = load ptr, ptr %3, align 8, !tbaa !19
  %.not = icmp eq ptr %4, null
  br i1 %.not, label %9, label %5

5:                                                ; preds = %2
  %6 = getelementptr inbounds nuw i8, ptr %4, i64 56
  %7 = load i64, ptr %6, align 8, !tbaa !67
  %8 = icmp sgt i64 %7, 1
  br i1 %8, label %10, label %9

9:                                                ; preds = %5, %2
  br label %10

10:                                               ; preds = %5, %9
  %.sink = phi i64 [ 8192, %9 ], [ %7, %5 ]
  %11 = tail call ptr @PyLong_FromLong(i64 noundef %.sink) #10
  ret ptr %11
}